target datalayout = "e-m:e-p270:32:32-p271:32:32-p272:64:64-i64:64-i128:128-f80:128-n8:16:32:64-S128"
target triple = "x86_64-pc-linux-gnu"

%"class.duckdb_re2::Regexp" = type { i8, i8, i16, i16, i16, %union.anon, ptr, %union.anon.0 }
%union.anon = type { ptr }
%union.anon.0 = type { %struct.anon.1 }
%struct.anon.1 = type { i32, ptr }

@_ZN10duckdb_re26RegexpC1ENS_8RegexpOpENS0_10ParseFlagsE = hidden unnamed_addr alias void (ptr, i32, i32), ptr @_ZN10duckdb_re26RegexpC2ENS_8RegexpOpENS0_10ParseFlagsE

; Function Attrs: mustprogress uwtable
define hidden noundef ptr @_ZN10duckdb_re26Regexp9HaveMatchEiNS0_10ParseFlagsE(i32 noundef %0, i32 noundef %1) #4 align 2 personality ptr @__gxx_personality_v0 {
  %3 = alloca i32, align 4
  %4 = alloca i32, align 4
  %5 = alloca ptr, align 8
  %6 = alloca ptr, align 8
  %7 = alloca i32, align 4
  store i32 %0, ptr %3, align 4, !tbaa !29
  store i32 %1, ptr %4, align 4, !tbaa !10
  call void @llvm.lifetime.start.p0(i64 8, ptr %5) #18
  %8 = call noalias noundef nonnull ptr @_Znwm(i64 noundef 40) #22
  %9 = load i32, ptr %4, align 4, !tbaa !10
  invoke void @_ZN10duckdb_re26RegexpC1ENS_8RegexpOpENS0_10ParseFlagsE(ptr noundef nonnull align 8 dereferenceable(40) %8, i32 noundef 21, i32 noundef %9)
          to label %10 unwind label %15

10:                                               ; preds = %2
  store ptr %8, ptr %5, align 8, !tbaa !3
  %11 = load i32, ptr %3, align 4, !tbaa !29
  %12 = load ptr, ptr %5, align 8, !tbaa !3
  %13 = getelementptr inbounds nuw %"class.duckdb_re2::Regexp", ptr %12, i32 0, i32 7
  store i32 %11, ptr %13, align 8, !tbaa !20
  %14 = load ptr, ptr %5, align 8, !tbaa !3
  call void @llvm.lifetime.end.p0(i64 8, ptr %5) #18
  ret ptr %14

15:                                               ; preds = %2
  %16 = landingpad { ptr, i32 }
          cleanup
  %17 = extractvalue { ptr, i32 } %16, 0
  store ptr %17, ptr %6, align 8
  %18 = extractvalue { ptr, i32 } %16, 1
  store i32 %18, ptr %7, align 4
  call void @_ZdlPv(ptr noundef %8) #19
  call void @llvm.lifetime.end.p0(i64 8, ptr %5) #18
  br label %19

19:                                               ; preds = %15
  %20 = load ptr, ptr %6, align 8
  %21 = load i32, ptr %7, align 4
  %22 = insertvalue { ptr, i32 } poison, ptr %20, 0
  %23 = insertvalue { ptr, i32 } %22, i32 %21, 1
  resume { ptr, i32 } %23
}